; Function Attrs: mustprogress nounwind uwtable
define hidden noundef ptr @_ZN8GraphKit14basic_plus_adrEP4NodeS1_S1_(ptr nocapture noundef nonnull readonly align 8 dereferenceable(84) %0, ptr noundef %1, ptr noundef %2, ptr noundef %3) local_unnamed_addr #0 align 2 {
  %5 = getelementptr inbounds i8, ptr %0, i64 32
  %6 = load ptr, ptr %5, align 8
  %7 = tail call noundef ptr @_ZN11PhaseValues6intconEi(ptr noundef nonnull align 8 dereferenceable(2400) %6, i32 noundef 0) #13
  %8 = icmp eq ptr %7, %3
  br i1 %8, label %37, label %9

9:                                                ; preds = %4
  %10 = load ptr, ptr %5, align 8
  %11 = tail call align 8 ptr @llvm.threadlocal.address.p0(ptr align 8 @_ZN6Thread12_thr_currentE)
  %12 = load ptr, ptr %11, align 8
  %13 = getelementptr inbounds i8, ptr %12, i64 1808
  %14 = load ptr, ptr %13, align 8
  %15 = getelementptr inbounds i8, ptr %14, i64 128
  %16 = load ptr, ptr %15, align 8
  %17 = getelementptr inbounds i8, ptr %16, i64 728
  %18 = load ptr, ptr %17, align 8
  %19 = getelementptr inbounds i8, ptr %18, i64 40
  %20 = load ptr, ptr %19, align 8
  %21 = getelementptr inbounds i8, ptr %18, i64 32
  %22 = load ptr, ptr %21, align 8
  %23 = ptrtoint ptr %20 to i64
  %24 = ptrtoint ptr %22 to i64
  %25 = sub i64 %23, %24
  %.not.i.i.i = icmp ult i64 %25, 56
  br i1 %.not.i.i.i, label %28, label %26

26:                                               ; preds = %9
  %27 = getelementptr inbounds i8, ptr %22, i64 56
  store ptr %27, ptr %21, align 8
  br label %_ZN4NodenwEm.exit

28:                                               ; preds = %9
  %29 = tail call noundef ptr @_ZN5Arena4growEmN17AllocFailStrategy13AllocFailEnumE(ptr noundef nonnull align 8 dereferenceable(48) %18, i64 noundef 56, i32 noundef 0) #13
  br label %_ZN4NodenwEm.exit

_ZN4NodenwEm.exit:                                ; preds = %26, %28
  %.0.i.i.i = phi ptr [ %22, %26 ], [ %29, %28 ]
  %30 = icmp eq ptr %.0.i.i.i, null
  br i1 %30, label %33, label %31

31:                                               ; preds = %_ZN4NodenwEm.exit
  tail call void @_ZN4NodeC2EPS_S0_S0_S0_(ptr noundef nonnull align 8 dereferenceable(52) %.0.i.i.i, ptr noundef null, ptr noundef %1, ptr noundef %2, ptr noundef %3) #13
  store ptr getelementptr inbounds inrange(-16, 192) (i8, ptr @_ZTV8AddPNode, i64 16), ptr %.0.i.i.i, align 8
  %32 = getelementptr inbounds i8, ptr %.0.i.i.i, i64 44
  store i32 512, ptr %32, align 4
  br label %33

33:                                               ; preds = %31, %_ZN4NodenwEm.exit
  %34 = load ptr, ptr %10, align 8
  %35 = load ptr, ptr %34, align 8
  %36 = tail call noundef ptr %35(ptr noundef nonnull align 8 dereferenceable(2400) %10, ptr noundef %.0.i.i.i) #13
  br label %37

37:                                               ; preds = %4, %33
  %.0 = phi ptr [ %36, %33 ], [ %2, %4 ]
  ret ptr %.0
}